; Function Attrs: nounwind uwtable
define ptr @l___private_Lean_Meta_Tactic_Grind_Core_0__Lean_Meta_Grind_addEqStep_go___lambda__2___boxed(ptr noundef readonly captures(none) %0) local_unnamed_addr #1 {
  %2 = load ptr, ptr %0, align 8, !tbaa !11
  %3 = getelementptr inbounds nuw i8, ptr %0, i64 8
  %4 = load ptr, ptr %3, align 8, !tbaa !11
  %5 = getelementptr inbounds nuw i8, ptr %0, i64 16
  %6 = load ptr, ptr %5, align 8, !tbaa !11
  %7 = getelementptr inbounds nuw i8, ptr %0, i64 24
  %8 = load ptr, ptr %7, align 8, !tbaa !11
  %9 = getelementptr inbounds nuw i8, ptr %0, i64 32
  %10 = load ptr, ptr %9, align 8, !tbaa !11
  %11 = getelementptr inbounds nuw i8, ptr %0, i64 40
  %12 = load ptr, ptr %11, align 8, !tbaa !11
  %13 = getelementptr inbounds nuw i8, ptr %0, i64 48
  %14 = load ptr, ptr %13, align 8, !tbaa !11
  %15 = getelementptr inbounds nuw i8, ptr %0, i64 56
  %16 = load ptr, ptr %15, align 8, !tbaa !11
  %17 = getelementptr inbounds nuw i8, ptr %0, i64 64
  %18 = load ptr, ptr %17, align 8, !tbaa !11
  %19 = getelementptr inbounds nuw i8, ptr %0, i64 72
  %20 = load ptr, ptr %19, align 8, !tbaa !11
  %21 = getelementptr inbounds nuw i8, ptr %0, i64 80
  %22 = load ptr, ptr %21, align 8, !tbaa !11
  %23 = getelementptr inbounds nuw i8, ptr %0, i64 88
  %24 = load ptr, ptr %23, align 8, !tbaa !11
  %25 = getelementptr inbounds nuw i8, ptr %0, i64 96
  %26 = load ptr, ptr %25, align 8, !tbaa !11
  %27 = getelementptr inbounds nuw i8, ptr %0, i64 104
  %28 = load ptr, ptr %27, align 8, !tbaa !11
  %29 = getelementptr inbounds nuw i8, ptr %0, i64 112
  %30 = load ptr, ptr %29, align 8, !tbaa !11
  %31 = getelementptr inbounds nuw i8, ptr %0, i64 120
  %32 = load ptr, ptr %31, align 8, !tbaa !11
  %33 = getelementptr inbounds nuw i8, ptr %0, i64 128
  %34 = load ptr, ptr %33, align 8, !tbaa !11
  %35 = getelementptr inbounds nuw i8, ptr %0, i64 136
  %36 = load ptr, ptr %35, align 8, !tbaa !11
  %37 = getelementptr inbounds nuw i8, ptr %0, i64 144
  %38 = load ptr, ptr %37, align 8, !tbaa !11
  %39 = getelementptr inbounds nuw i8, ptr %0, i64 152
  %40 = load ptr, ptr %39, align 8, !tbaa !11
  %41 = getelementptr inbounds nuw i8, ptr %0, i64 160
  %42 = load ptr, ptr %41, align 8, !tbaa !11
  %43 = getelementptr inbounds nuw i8, ptr %0, i64 168
  %44 = load ptr, ptr %43, align 8, !tbaa !11
  %45 = getelementptr inbounds nuw i8, ptr %0, i64 176
  %46 = load ptr, ptr %45, align 8, !tbaa !11
  %47 = getelementptr inbounds nuw i8, ptr %0, i64 184
  %48 = load ptr, ptr %47, align 8, !tbaa !11
  %49 = getelementptr inbounds nuw i8, ptr %0, i64 192
  %50 = load ptr, ptr %49, align 8, !tbaa !11
  %51 = getelementptr inbounds nuw i8, ptr %0, i64 200
  %52 = load ptr, ptr %51, align 8, !tbaa !11
  %53 = ptrtoint ptr %28 to i64
  %54 = lshr i64 %53, 1
  %55 = trunc i64 %54 to i8
  %56 = and i64 %53, 1
  %.not = icmp eq i64 %56, 0
  br i1 %.not, label %57, label %lean_dec.exit63

57:                                               ; preds = %1
  %58 = load i32, ptr %28, align 4, !tbaa !8
  %59 = icmp sgt i32 %58, 1
  br i1 %59, label %60, label %62, !prof !13

60:                                               ; preds = %57
  %61 = add nsw i32 %58, -1
  store i32 %61, ptr %28, align 4, !tbaa !8
  br label %lean_dec.exit63

62:                                               ; preds = %57
  %.not.i = icmp eq i32 %58, 0
  br i1 %.not.i, label %lean_dec.exit63, label %63

63:                                               ; preds = %62
  tail call void @lean_dec_ref_cold(ptr noundef nonnull %28) #5
  br label %lean_dec.exit63

lean_dec.exit63:                                  ; preds = %63, %62, %60, %1
  %64 = ptrtoint ptr %30 to i64
  %65 = lshr i64 %64, 1
  %66 = trunc i64 %65 to i8
  %67 = and i64 %64, 1
  %.not72 = icmp eq i64 %67, 0
  br i1 %.not72, label %68, label %lean_dec.exit62

68:                                               ; preds = %lean_dec.exit63
  %69 = load i32, ptr %30, align 4, !tbaa !8
  %70 = icmp sgt i32 %69, 1
  br i1 %70, label %71, label %73, !prof !13

71:                                               ; preds = %68
  %72 = add nsw i32 %69, -1
  store i32 %72, ptr %30, align 4, !tbaa !8
  br label %lean_dec.exit62

73:                                               ; preds = %68
  %.not.i64 = icmp eq i32 %69, 0
  br i1 %.not.i64, label %lean_dec.exit62, label %74

74:                                               ; preds = %73
  tail call void @lean_dec_ref_cold(ptr noundef nonnull %30) #5
  br label %lean_dec.exit62

lean_dec.exit62:                                  ; preds = %74, %73, %71, %lean_dec.exit63
  %75 = ptrtoint ptr %32 to i64
  %76 = lshr i64 %75, 1
  %77 = trunc i64 %76 to i8
  %78 = and i64 %75, 1
  %.not73 = icmp eq i64 %78, 0
  br i1 %.not73, label %79, label %lean_dec.exit61

79:                                               ; preds = %lean_dec.exit62
  %80 = load i32, ptr %32, align 4, !tbaa !8
  %81 = icmp sgt i32 %80, 1
  br i1 %81, label %82, label %84, !prof !13

82:                                               ; preds = %79
  %83 = add nsw i32 %80, -1
  store i32 %83, ptr %32, align 4, !tbaa !8
  br label %lean_dec.exit61

84:                                               ; preds = %79
  %.not.i66 = icmp eq i32 %80, 0
  br i1 %.not.i66, label %lean_dec.exit61, label %85

85:                                               ; preds = %84
  tail call void @lean_dec_ref_cold(ptr noundef nonnull %32) #5
  br label %lean_dec.exit61

lean_dec.exit61:                                  ; preds = %85, %84, %82, %lean_dec.exit62
  %86 = tail call ptr @l___private_Lean_Meta_Tactic_Grind_Core_0__Lean_Meta_Grind_addEqStep_go___lambda__2(ptr noundef %2, ptr noundef %4, ptr noundef %6, ptr noundef %8, ptr noundef %10, ptr noundef %12, ptr noundef %14, ptr noundef %16, ptr noundef %18, ptr noundef %20, ptr noundef %22, ptr noundef %24, ptr noundef %26, i8 noundef zeroext %55, i8 noundef zeroext %66, i8 noundef zeroext %77, ptr poison, ptr noundef %36, ptr noundef %38, ptr noundef %40, ptr noundef %42, ptr noundef %44, ptr noundef %46, ptr noundef %48, ptr noundef %50, ptr noundef %52)
  %87 = ptrtoint ptr %34 to i64
  %88 = and i64 %87, 1
  %.not74 = icmp eq i64 %88, 0
  br i1 %.not74, label %89, label %lean_dec.exit60

89:                                               ; preds = %lean_dec.exit61
  %90 = load i32, ptr %34, align 4, !tbaa !8
  %91 = icmp sgt i32 %90, 1
  br i1 %91, label %92, label %94, !prof !13

92:                                               ; preds = %89
  %93 = add nsw i32 %90, -1
  store i32 %93, ptr %34, align 4, !tbaa !8
  br label %lean_dec.exit60

94:                                               ; preds = %89
  %.not.i68 = icmp eq i32 %90, 0
  br i1 %.not.i68, label %lean_dec.exit60, label %95

95:                                               ; preds = %94
  tail call void @lean_dec_ref_cold(ptr noundef nonnull %34) #5
  br label %lean_dec.exit60

lean_dec.exit60:                                  ; preds = %95, %94, %92, %lean_dec.exit61
  %96 = ptrtoint ptr %12 to i64
  %97 = and i64 %96, 1
  %.not75 = icmp eq i64 %97, 0
  br i1 %.not75, label %98, label %lean_dec.exit

98:                                               ; preds = %lean_dec.exit60
  %99 = load i32, ptr %12, align 4, !tbaa !8
  %100 = icmp sgt i32 %99, 1
  br i1 %100, label %101, label %103, !prof !13

101:                                              ; preds = %98
  %102 = add nsw i32 %99, -1
  store i32 %102, ptr %12, align 4, !tbaa !8
  br label %lean_dec.exit

103:                                              ; preds = %98
  %.not.i70 = icmp eq i32 %99, 0
  br i1 %.not.i70, label %lean_dec.exit, label %104

104:                                              ; preds = %103
  tail call void @lean_dec_ref_cold(ptr noundef nonnull %12) #5
  br label %lean_dec.exit

lean_dec.exit:                                    ; preds = %104, %103, %101, %lean_dec.exit60
  ret ptr %86
}